; Function Attrs: mustprogress uwtable
define hidden void @_ZN17bv2int_translator5mk_ltEP4exprS1_(ptr dead_on_unwind noalias writable writeonly sret(%class.obj_ref) align 8 captures(none) %0, ptr noundef nonnull align 8 dereferenceable(177) %1, ptr noundef %2, ptr noundef %3) local_unnamed_addr #3 align 2 personality ptr @__gxx_personality_v0 {
  %5 = alloca %class.obj_ref, align 8
  %6 = load ptr, ptr %1, align 8, !tbaa !65
  call void @llvm.lifetime.start.p0(i64 16, ptr nonnull %5) #23
  call void @_ZN17bv2int_translator5mk_leEP4exprS1_(ptr dead_on_unwind nonnull writable sret(%class.obj_ref) align 8 %5, ptr noundef nonnull align 8 dereferenceable(177) %1, ptr noundef %3, ptr noundef %2)
  %7 = load ptr, ptr %5, align 8, !tbaa !124
  %8 = invoke noundef ptr @_ZN11ast_manager6mk_appEiiP4expr(ptr noundef nonnull align 8 dereferenceable(976) %6, i32 noundef 0, i32 noundef 8, ptr noundef %7)
          to label %_ZN11ast_manager6mk_notEP4expr.exit unwind label %25

_ZN11ast_manager6mk_notEP4expr.exit:              ; preds = %4
  %9 = load ptr, ptr %1, align 8, !tbaa !65
  store ptr %8, ptr %0, align 8, !tbaa !124
  %10 = getelementptr inbounds nuw i8, ptr %0, i64 8
  store ptr %9, ptr %10, align 8, !tbaa !3
  %.not.i.i = icmp eq ptr %8, null
  br i1 %.not.i.i, label %_ZN7obj_refI4expr11ast_managerEC2EPS0_RS1_.exit, label %_ZN11ast_manager7inc_refEP3ast.exit.i.i

_ZN11ast_manager7inc_refEP3ast.exit.i.i:          ; preds = %_ZN11ast_manager6mk_notEP4expr.exit
  %11 = getelementptr inbounds nuw i8, ptr %8, i64 8
  %12 = load i32, ptr %11, align 4, !tbaa !47
  %13 = add i32 %12, 1
  store i32 %13, ptr %11, align 4, !tbaa !47
  br label %_ZN7obj_refI4expr11ast_managerEC2EPS0_RS1_.exit

_ZN7obj_refI4expr11ast_managerEC2EPS0_RS1_.exit:  ; preds = %_ZN11ast_manager7inc_refEP3ast.exit.i.i, %_ZN11ast_manager6mk_notEP4expr.exit
  %.not.i.i4 = icmp eq ptr %7, null
  br i1 %.not.i.i4, label %_ZN7obj_refI4expr11ast_managerED2Ev.exit, label %14

14:                                               ; preds = %_ZN7obj_refI4expr11ast_managerEC2EPS0_RS1_.exit
  %15 = getelementptr inbounds nuw i8, ptr %5, i64 8
  %16 = load ptr, ptr %15, align 8, !tbaa !127
  %17 = getelementptr inbounds nuw i8, ptr %7, i64 8
  %18 = load i32, ptr %17, align 4, !tbaa !47
  %19 = add i32 %18, -1
  store i32 %19, ptr %17, align 4, !tbaa !47
  %20 = icmp eq i32 %19, 0
  br i1 %20, label %21, label %_ZN7obj_refI4expr11ast_managerED2Ev.exit

21:                                               ; preds = %14
  invoke void @_ZN11ast_manager11delete_nodeEP3ast(ptr noundef nonnull align 8 dereferenceable(976) %16, ptr noundef nonnull %7)
          to label %_ZN7obj_refI4expr11ast_managerED2Ev.exit unwind label %22

22:                                               ; preds = %21
  %23 = landingpad { ptr, i32 }
          catch ptr null
  %24 = extractvalue { ptr, i32 } %23, 0
  tail call void @__clang_call_terminate(ptr %24) #25
  unreachable

_ZN7obj_refI4expr11ast_managerED2Ev.exit:         ; preds = %_ZN7obj_refI4expr11ast_managerEC2EPS0_RS1_.exit, %14, %21
  call void @llvm.lifetime.end.p0(i64 16, ptr nonnull %5) #23
  ret void

25:                                               ; preds = %4
  %26 = landingpad { ptr, i32 }
          cleanup
  call void @_ZN7obj_refI4expr11ast_managerED2Ev(ptr noundef nonnull align 8 dereferenceable(16) %5) #23
  call void @llvm.lifetime.end.p0(i64 16, ptr nonnull %5) #23
  resume { ptr, i32 } %26
}